target datalayout = "e-m:e-p270:32:32-p271:32:32-p272:64:64-i64:64-i128:128-f80:128-n8:16:32:64-S128"
target triple = "x86_64-pc-linux-gnu"

@.str.14 = private unnamed_addr constant [36 x i8] c"../openssl/test/verify_extra_test.c\00", align 1
@bad_f = internal global ptr null, align 8
@.str.48 = private unnamed_addr constant [14 x i8] c"this is an ID\00", align 1
@.str.49 = private unnamed_addr constant [3 x i8] c"v2\00", align 1
@.str.50 = private unnamed_addr constant [29 x i8] c"ASN1_OCTET_STRING_cmp(v, v2)\00", align 1
@.str.51 = private unnamed_addr constant [2 x i8] c"0\00", align 1

; Function Attrs: nounwind uwtable
define internal i32 @test_distinguishing_id() #0 {
  %1 = alloca ptr, align 8
  %2 = alloca i32, align 4
  %3 = alloca ptr, align 8
  %4 = alloca ptr, align 8
  %5 = alloca ptr, align 8
  call void @llvm.lifetime.start.p0(i64 8, ptr %1) #5
  store ptr null, ptr %1, align 8, !tbaa !11
  call void @llvm.lifetime.start.p0(i64 4, ptr %2) #5
  store i32 0, ptr %2, align 4, !tbaa !9
  call void @llvm.lifetime.start.p0(i64 8, ptr %3) #5
  store ptr null, ptr %3, align 8, !tbaa !21
  call void @llvm.lifetime.start.p0(i64 8, ptr %4) #5
  store ptr null, ptr %4, align 8, !tbaa !21
  call void @llvm.lifetime.start.p0(i64 8, ptr %5) #5
  store ptr @.str.48, ptr %5, align 8, !tbaa !4
  %6 = load ptr, ptr @bad_f, align 8, !tbaa !4
  %7 = call ptr @load_cert_pem(ptr noundef %6, ptr noundef null)
  store ptr %7, ptr %1, align 8, !tbaa !11
  %8 = load ptr, ptr %1, align 8, !tbaa !11
  %9 = icmp eq ptr %8, null
  br i1 %9, label %10, label %11

10:                                               ; preds = %0
  br label %42

11:                                               ; preds = %0
  %12 = call ptr @ASN1_OCTET_STRING_new()
  store ptr %12, ptr %3, align 8, !tbaa !21
  %13 = load ptr, ptr %3, align 8, !tbaa !21
  %14 = icmp eq ptr %13, null
  br i1 %14, label %15, label %16

15:                                               ; preds = %11
  br label %42

16:                                               ; preds = %11
  %17 = load ptr, ptr %3, align 8, !tbaa !21
  %18 = load ptr, ptr %5, align 8, !tbaa !4
  %19 = load ptr, ptr %5, align 8, !tbaa !4
  %20 = call i64 @strlen(ptr noundef %19) #6
  %21 = trunc i64 %20 to i32
  %22 = call i32 @ASN1_OCTET_STRING_set(ptr noundef %17, ptr noundef %18, i32 noundef %21)
  %23 = icmp ne i32 %22, 0
  br i1 %23, label %26, label %24

24:                                               ; preds = %16
  %25 = load ptr, ptr %3, align 8, !tbaa !21
  call void @ASN1_OCTET_STRING_free(ptr noundef %25)
  br label %42

26:                                               ; preds = %16
  %27 = load ptr, ptr %1, align 8, !tbaa !11
  %28 = load ptr, ptr %3, align 8, !tbaa !21
  call void @X509_set0_distinguishing_id(ptr noundef %27, ptr noundef %28)
  %29 = load ptr, ptr %1, align 8, !tbaa !11
  %30 = call ptr @X509_get0_distinguishing_id(ptr noundef %29)
  store ptr %30, ptr %4, align 8, !tbaa !21
  %31 = load ptr, ptr %4, align 8, !tbaa !21
  %32 = call i32 @test_ptr(ptr noundef @.str.14, i32 noundef 131, ptr noundef @.str.49, ptr noundef %31)
  %33 = icmp ne i32 %32, 0
  br i1 %33, label %34, label %40

34:                                               ; preds = %26
  %35 = load ptr, ptr %3, align 8, !tbaa !21
  %36 = load ptr, ptr %4, align 8, !tbaa !21
  %37 = call i32 @ASN1_OCTET_STRING_cmp(ptr noundef %35, ptr noundef %36)
  %38 = call i32 @test_int_eq(ptr noundef @.str.14, i32 noundef 132, ptr noundef @.str.50, ptr noundef @.str.51, i32 noundef %37, i32 noundef 0)
  %39 = icmp ne i32 %38, 0
  br i1 %39, label %41, label %40

40:                                               ; preds = %34, %26
  br label %42

41:                                               ; preds = %34
  store i32 1, ptr %2, align 4, !tbaa !9
  br label %42

42:                                               ; preds = %41, %40, %24, %15, %10
  %43 = load ptr, ptr %1, align 8, !tbaa !11
  call void @X509_free(ptr noundef %43)
  %44 = load i32, ptr %2, align 4, !tbaa !9
  call void @llvm.lifetime.end.p0(i64 8, ptr %5) #5
  call void @llvm.lifetime.end.p0(i64 8, ptr %4) #5
  call void @llvm.lifetime.end.p0(i64 8, ptr %3) #5
  call void @llvm.lifetime.end.p0(i64 4, ptr %2) #5
  call void @llvm.lifetime.end.p0(i64 8, ptr %1) #5
  ret i32 %44
}