; Function Attrs: nounwind uwtable
define internal range(i32 0, 2) i32 @test_distinguishing_id() #1 {
  %1 = load ptr, ptr @bad_f, align 8, !tbaa !4
  %2 = tail call ptr @load_cert_pem(ptr noundef %1, ptr noundef null) #3
  %3 = icmp eq ptr %2, null
  br i1 %3, label %16, label %4

4:                                                ; preds = %0
  %5 = tail call ptr @ASN1_OCTET_STRING_new() #3
  %6 = icmp eq ptr %5, null
  br i1 %6, label %16, label %7

7:                                                ; preds = %4
  %8 = tail call i32 @ASN1_OCTET_STRING_set(ptr noundef nonnull %5, ptr noundef nonnull @.str.48, i32 noundef 13) #3
  %.not = icmp eq i32 %8, 0
  br i1 %.not, label %9, label %10

9:                                                ; preds = %7
  tail call void @ASN1_OCTET_STRING_free(ptr noundef nonnull %5) #3
  br label %16

10:                                               ; preds = %7
  tail call void @X509_set0_distinguishing_id(ptr noundef nonnull %2, ptr noundef nonnull %5) #3
  %11 = tail call ptr @X509_get0_distinguishing_id(ptr noundef nonnull %2) #3
  %12 = tail call i32 @test_ptr(ptr noundef nonnull @.str.14, i32 noundef 131, ptr noundef nonnull @.str.49, ptr noundef %11) #3
  %.not15 = icmp eq i32 %12, 0
  br i1 %.not15, label %16, label %13

13:                                               ; preds = %10
  %14 = tail call i32 @ASN1_OCTET_STRING_cmp(ptr noundef nonnull %5, ptr noundef %11) #3
  %15 = tail call i32 @test_int_eq(ptr noundef nonnull @.str.14, i32 noundef 132, ptr noundef nonnull @.str.50, ptr noundef nonnull @.str.51, i32 noundef %14, i32 noundef 0) #3
  %.not16 = icmp ne i32 %15, 0
  %spec.select = zext i1 %.not16 to i32
  br label %16

16:                                               ; preds = %13, %10, %4, %0, %9
  %.0 = phi i32 [ 0, %0 ], [ 0, %4 ], [ 0, %10 ], [ 0, %9 ], [ %spec.select, %13 ]
  tail call void @X509_free(ptr noundef %2) #3
  ret i32 %.0
}